TN:
SF:/home/user/ECE350Final/src/Card.cpp
FN:6,_ZN4Card11getNumValueEv
FN:35,_ZN4Card7setSuitEc
FN:66,_ZN4Card6setValEc
FN:93,_ZN4Card6setValEi
FN:125,_ZN4Card5printEv
FN:147,_ZN4Card7isEmptyEv
FNDA:36,_ZN4Card5printEv
FNDA:267,_ZN4Card6setValEi
FNDA:94,_ZN4Card11getNumValueEv
FNDA:53,_ZN4Card6setValEc
FNDA:6,_ZN4Card7isEmptyEv
FNDA:72,_ZN4Card7setSuitEc
FNF:6
FNH:6
DA:6,94
DA:9,94
DA:10,28
DA:11,28
DA:12,28
DA:13,13
DA:14,13
DA:15,13
DA:16,11
DA:17,11
DA:18,11
DA:19,6
DA:20,6
DA:21,6
DA:22,11
DA:23,11
DA:24,11
DA:25,4
DA:26,4
DA:27,4
DA:28,21
DA:29,21
DA:30,21
DA:32,94
DA:35,72
DA:37,72
DA:38,18
DA:40,18
DA:41,18
DA:42,16
DA:44,16
DA:45,16
DA:46,17
DA:48,17
DA:49,17
DA:50,16
DA:52,16
DA:53,16
DA:54,0
DA:55,0
DA:56,0
DA:57,5
DA:58,5
DA:60,67
DA:66,53
DA:68,53
DA:69,13
DA:71,40
DA:72,6
DA:74,34
DA:75,6
DA:78,28
DA:79,6
DA:81,22
DA:82,6
DA:84,16
DA:85,7
DA:87,9
DA:88,2
DA:90,7
DA:93,267
DA:97,267
DA:98,111
DA:99,111
DA:101,156
DA:102,30
DA:103,30
DA:104,30
DA:105,30
DA:106,30
DA:107,30
DA:108,30
DA:109,30
DA:110,30
DA:111,30
DA:112,30
DA:113,30
DA:114,31
DA:115,31
DA:116,31
DA:117,2
DA:118,2
DA:119,2
DA:122,3
DA:125,36
DA:126,36
DA:127,6
DA:129,30
DA:131,36
DA:132,36
DA:133,11
DA:134,11
DA:135,11
DA:136,8
DA:137,8
DA:138,8
DA:139,9
DA:140,9
DA:141,9
DA:142,8
DA:143,8
DA:144,8
DA:146,36
DA:147,6
DA:148,6
LF:105
LH:102
end_of_record
TN:
SF:/home/user/ECE350Final/src/Card.h
FN:8,_ZN4CardC2Ev
FN:9,_ZN4CardC2Ecc
FN:10,_ZN4Card7getSuitEv
FN:20,_ZNK4CardeqERKS_
FN:24,_ZNK4CardneERKS_
FN:27,_ZNK4CardltERKS_
FNDA:1,_ZNK4CardneERKS_
FNDA:93,_ZN4CardC2Ev
FNDA:121,_ZN4CardC2Ecc
FNDA:10,_ZNK4CardltERKS_
FNDA:96,_ZNK4CardeqERKS_
FNDA:103,_ZN4Card7getSuitEv
FNF:6
FNH:6
DA:8,93
DA:9,121
DA:10,103
DA:20,96
DA:22,96
DA:24,1
DA:25,1
DA:27,10
DA:28,10
LF:9
LH:9
end_of_record
TN:
SF:/home/user/ECE350Final/src/Deck.cpp
FN:10,_ZN4DeckC2Ev
FN:28,_ZN4DeckC2ESt6vectorI4CardSaIS1_EE
FN:36,_ZN4DeckC2Ei
FN:41,_ZN4Deck8drawCardEv
FN:54,_ZN4Deck7addCardE4Card
FN:60,_ZN4Deck10removeCardE4Card
FN:72,_ZN4Deck12shuffleCardsEv
FN:80,_ZN4Deck5printEv
FN:88,_ZN4Deck8drawHandEv
FN:101,_ZN4Deck11firstPlayerES_S_c
FN:148,_ZN4Deck7askCardEv
FN:170,_ZN4Deck7askCardES_
FN:207,_ZN4Deck7askCardE4Cardc
FN:253,_ZN4Deck10checkValueES_
FN:266,_ZN4Deck5clearEv
FN:271,_ZN4Deck8findHighEc
FN:285,_ZN4Deck8findHighEv
FN:300,_ZN4Deck6pickUpERS_
FN:309,_ZN4Deck9replenishERS_
FNDA:2,_ZN4DeckC2Ei
FNDA:2,_ZN4Deck5clearEv
FNDA:1,_ZN4Deck7askCardES_
FNDA:2,_ZN4Deck10checkValueES_
FNDA:1,_ZN4Deck5printEv
FNDA:2,_ZN4Deck7askCardE4Cardc
FNDA:6,_ZN4DeckC2Ev
FNDA:1,_ZN4Deck12shuffleCardsEv
FNDA:225,_ZN4Deck7addCardE4Card
FNDA:1,_ZN4Deck7askCardEv
FNDA:15,_ZN4Deck8drawCardEv
FNDA:2,_ZN4Deck8findHighEv
FNDA:4,_ZN4Deck11firstPlayerES_S_c
FNDA:1,_ZN4Deck8drawHandEv
FNDA:38,_ZN4DeckC2ESt6vectorI4CardSaIS1_EE
FNDA:2,_ZN4Deck9replenishERS_
FNDA:3,_ZN4Deck8findHighEc
FNDA:1,_ZN4Deck6pickUpERS_
FNDA:6,_ZN4Deck10removeCardE4Card
FNF:19
FNH:19
DA:10,6
DA:12,6
DA:14,6
DA:16,6
DA:18,30
DA:19,24
DA:21,240
DA:22,216
DA:23,216
DA:26,6
DA:28,38
DA:29,38
DA:30,181
DA:31,143
DA:34,38
DA:36,2
DA:38,2
DA:39,2
DA:41,15
DA:42,15
DA:43,15
DA:45,2
DA:48,13
DA:49,13
DA:50,13
DA:51,13
DA:54,225
DA:55,225
DA:57,225
DA:58,225
DA:60,6
DA:63,10
DA:64,9
DA:65,5
DA:66,5
DA:67,5
DA:72,1
DA:75,2
DA:76,1
DA:77,1
DA:78,1
DA:80,1
DA:81,3
DA:82,2
DA:83,2
DA:85,1
DA:86,1
DA:88,1
DA:90,2
DA:92,7
DA:93,6
DA:94,6
DA:97,1
DA:98,2
DA:101,4
DA:104,8
DA:105,4
DA:106,17
DA:107,13
DA:108,1
DA:109,1
DA:112,0
DA:113,0
DA:119,8
DA:120,4
DA:121,18
DA:122,14
DA:123,2
DA:124,2
DA:127,0
DA:128,0
DA:134,4
DA:135,3
DA:136,1
DA:138,2
DA:141,1
DA:142,1
DA:144,0
DA:148,1
DA:150,1
DA:151,4
DA:152,3
DA:153,3
DA:154,3
DA:157,1
DA:158,1
DA:159,1
DA:160,3
DA:161,2
DA:162,2
DA:165,1
DA:166,1
DA:167,1
DA:170,1
DA:171,2
DA:172,1
DA:173,0
DA:177,1
DA:178,4
DA:179,3
DA:180,3
DA:181,3
DA:184,1
DA:185,1
DA:186,1
DA:187,1
DA:188,3
DA:189,2
DA:190,3
DA:191,1
DA:192,1
DA:194,2
DA:195,8
DA:196,6
DA:197,1
DA:199,2
DA:200,1
DA:203,1
DA:204,1
DA:207,2
DA:208,2
DA:210,2
DA:211,8
DA:212,6
DA:213,1
DA:214,6
DA:215,0
DA:217,2
DA:218,1
DA:220,1
DA:221,4
DA:222,3
DA:223,3
DA:224,3
DA:227,1
DA:228,1
DA:229,1
DA:230,3
DA:231,2
DA:232,3
DA:233,1
DA:234,1
DA:236,2
DA:238,2
DA:239,1
DA:240,2
DA:241,0
DA:242,2
DA:243,1
DA:244,1
DA:245,1
DA:249,1
DA:250,1
DA:253,2
DA:255,2
DA:256,8
DA:257,27
DA:258,21
DA:259,1
DA:263,2
DA:266,2
DA:267,2
DA:268,2
DA:269,2
DA:271,3
DA:272,3
DA:273,10
DA:274,7
DA:276,1
DA:277,1
DA:280,3
DA:281,1
DA:282,3
DA:285,2
DA:286,2
DA:287,5
DA:289,3
DA:290,2
DA:297,2
DA:300,1
DA:303,4
DA:304,3
DA:306,1
DA:307,1
DA:309,2
DA:310,7
DA:311,6
DA:312,6
DA:313,1
DA:315,5
DA:317,1
LF:191
LH:183
end_of_record
TN:
SF:/home/user/ECE350Final/src/Deck.h
FN:14,_ZN4Deck7getSizeEv
FN:18,_ZN4Deck8getCardsEv
FN:32,_ZNK4DeckeqERKS_
FNDA:1,_ZNK4DeckeqERKS_
FNDA:44,_ZN4Deck8getCardsEv
FNDA:46,_ZN4Deck7getSizeEv
FNF:3
FNH:3
DA:14,46
DA:18,44
DA:32,1
DA:33,1
DA:34,0
DA:38,2
DA:39,2
DA:41,1
LF:8
LH:7
end_of_record
TN:
SF:/home/user/ECE350Final/unit_tests/MyTests/card_test.cpp
FN:8,_ZL29____C_A_T_C_H____T_E_S_T____0v
FN:31,_ZL29____C_A_T_C_H____T_E_S_T____5v
FN:71,_ZL29____C_A_T_C_H____T_E_S_T____9v
FN:77,_ZL30____C_A_T_C_H____T_E_S_T____11v
FN:95,_ZL30____C_A_T_C_H____T_E_S_T____15v
FN:124,_Z9testPrintR4CardcRKSt6vectorISt4pairIcNSt7__cxx1112basic_stringIcSt11char_traitsIcESaIcEEEESaIS9_EE
FN:145,_ZL30____C_A_T_C_H____T_E_S_T____19v
FN:197,_ZL30____C_A_T_C_H____T_E_S_T____25v
FN:204,_ZL30____C_A_T_C_H____T_E_S_T____27v
FNDA:3,_ZL29____C_A_T_C_H____T_E_S_T____0v
FNDA:2,_ZL30____C_A_T_C_H____T_E_S_T____15v
FNDA:1,_ZL29____C_A_T_C_H____T_E_S_T____9v
FNDA:4,_ZL30____C_A_T_C_H____T_E_S_T____19v
FNDA:4,_Z9testPrintR4CardcRKSt6vectorISt4pairIcNSt7__cxx1112basic_stringIcSt11char_traitsIcESaIcEEEESaIS9_EE
FNDA:1,_ZL30____C_A_T_C_H____T_E_S_T____27v
FNDA:2,_ZL29____C_A_T_C_H____T_E_S_T____5v
FNDA:2,_ZL30____C_A_T_C_H____T_E_S_T____11v
FNDA:1,_ZL30____C_A_T_C_H____T_E_S_T____25v
FNF:9
FNH:9
DA:8,3
DA:9,3
DA:10,4
DA:11,5
DA:12,4
DA:15,4
DA:16,1
DA:17,1
DA:18,1
DA:19,1
DA:20,1
DA:22,4
DA:23,1
DA:24,1
DA:25,1
DA:26,1
DA:27,1
DA:29,3
DA:31,2
DA:32,2
DA:34,3
DA:35,1
DA:36,1
DA:38,1
DA:39,1
DA:41,1
DA:42,1
DA:44,1
DA:45,1
DA:47,1
DA:48,1
DA:50,1
DA:51,1
DA:53,5
DA:54,4
DA:55,4
DA:58,3
DA:60,1
DA:61,1
DA:63,1
DA:64,1
DA:66,1
DA:67,1
DA:69,2
DA:71,1
DA:72,1
DA:73,1
DA:74,1
DA:75,1
DA:76,1
DA:77,2
DA:78,2
DA:79,3
DA:80,1
DA:81,1
DA:82,1
DA:83,1
DA:84,1
DA:85,1
DA:86,1
DA:87,1
DA:89,3
DA:90,1
DA:91,1
DA:92,1
DA:94,2
DA:95,2
DA:96,2
DA:97,3
DA:98,1
DA:99,1
DA:100,1
DA:101,1
DA:103,1
DA:104,1
DA:105,1
DA:106,1
DA:108,1
DA:109,1
DA:110,1
DA:111,1
DA:113,1
DA:114,1
DA:115,1
DA:116,1
DA:118,3
DA:119,1
DA:120,1
DA:123,2
DA:124,4
DA:125,28
DA:126,24
DA:128,24
DA:129,24
DA:132,48
DA:133,24
DA:135,24
DA:138,24
DA:141,24
DA:143,4
DA:145,4
DA:146,4
DA:148,5
DA:150,0
DA:151,0
DA:152,0
DA:153,0
DA:154,0
DA:155,0
DA:156,9
DA:157,1
DA:160,5
DA:162,0
DA:163,0
DA:164,0
DA:165,0
DA:166,0
DA:167,0
DA:168,9
DA:169,1
DA:172,5
DA:174,0
DA:175,0
DA:176,0
DA:177,0
DA:178,0
DA:179,0
DA:180,9
DA:181,1
DA:184,5
DA:186,0
DA:187,0
DA:188,0
DA:189,0
DA:190,0
DA:191,0
DA:192,9
DA:193,1
DA:195,4
DA:197,1
DA:198,1
DA:199,1
DA:200,1
DA:201,1
DA:202,1
DA:203,1
DA:204,1
DA:205,1
DA:206,1
DA:207,1
DA:208,1
DA:209,1
LF:152
LH:128
end_of_record
TN:
SF:/home/user/ECE350Final/unit_tests/MyTests/deck_test.cpp
FN:6,_Z8isFindedRSt6vectorI4CardSaIS0_EERS0_
FN:14,_Z14isFindedInDeckR4DeckR4Card
FN:23,_Z15redirectStreamsRNSt7__cxx1119basic_istringstreamIcSt11char_traitsIcESaIcEEERNS_19basic_ostringstreamIcS2_S3_EERPSt15basic_streambufIcS2_ESC_
FN:28,_Z14restoreStreamsPSt15basic_streambufIcSt11char_traitsIcEES3_
FN:32,_Z14validateOutputRKNSt7__cxx1112basic_stringIcSt11char_traitsIcESaIcEEERKSt6vectorIS4_SaIS4_EE
FN:38,_ZL29____C_A_T_C_H____T_E_S_T____0v
FN:70,_ZL29____C_A_T_C_H____T_E_S_T____5v
FN:88,_ZL29____C_A_T_C_H____T_E_S_T____9v
FN:93,_ZL30____C_A_T_C_H____T_E_S_T____11v
FN:127,_ZL30____C_A_T_C_H____T_E_S_T____16v
FN:146,_ZL30____C_A_T_C_H____T_E_S_T____20v
FN:155,_ZL30____C_A_T_C_H____T_E_S_T____23v
FN:169,_ZL30____C_A_T_C_H____T_E_S_T____25v
FN:187,_ZL30____C_A_T_C_H____T_E_S_T____27v
FN:195,_ZL30____C_A_T_C_H____T_E_S_T____30v
FN:228,_ZL30____C_A_T_C_H____T_E_S_T____36v
FN:261,_ZL30____C_A_T_C_H____T_E_S_T____38v
FN:299,_ZL30____C_A_T_C_H____T_E_S_T____40v
FN:341,_ZL30____C_A_T_C_H____T_E_S_T____44v
FN:363,_ZL30____C_A_T_C_H____T_E_S_T____48v
FN:368,_ZL30____C_A_T_C_H____T_E_S_T____50v
FN:395,_ZL30____C_A_T_C_H____T_E_S_T____55v
FN:413,_ZL30____C_A_T_C_H____T_E_S_T____59v
FN:426,_ZL30____C_A_T_C_H____T_E_S_T____61v
FNDA:2,_ZL30____C_A_T_C_H____T_E_S_T____44v
FNDA:1,_ZL30____C_A_T_C_H____T_E_S_T____36v
FNDA:4,_ZL30____C_A_T_C_H____T_E_S_T____30v
FNDA:3,_Z14validateOutputRKNSt7__cxx1112basic_stringIcSt11char_traitsIcESaIcEEERKSt6vectorIS4_SaIS4_EE
FNDA:2,_ZL30____C_A_T_C_H____T_E_S_T____16v
FNDA:1,_ZL29____C_A_T_C_H____T_E_S_T____9v
FNDA:1,_ZL30____C_A_T_C_H____T_E_S_T____27v
FNDA:1,_ZL30____C_A_T_C_H____T_E_S_T____20v
FNDA:3,_Z14restoreStreamsPSt15basic_streambufIcSt11char_traitsIcEES3_
FNDA:1,_ZL30____C_A_T_C_H____T_E_S_T____59v
FNDA:2,_ZL30____C_A_T_C_H____T_E_S_T____40v
FNDA:3,_ZL30____C_A_T_C_H____T_E_S_T____11v
FNDA:2,_ZL29____C_A_T_C_H____T_E_S_T____5v
FNDA:2,_ZL30____C_A_T_C_H____T_E_S_T____61v
FNDA:3,_Z8isFindedRSt6vectorI4CardSaIS0_EERS0_
FNDA:1,_ZL30____C_A_T_C_H____T_E_S_T____25v
FNDA:1,_ZL30____C_A_T_C_H____T_E_S_T____38v
FNDA:7,_Z14isFindedInDeckR4DeckR4Card
FNDA:1,_ZL30____C_A_T_C_H____T_E_S_T____23v
FNDA:3,_ZL29____C_A_T_C_H____T_E_S_T____0v
FNDA:3,_Z15redirectStreamsRNSt7__cxx1119basic_istringstreamIcSt11char_traitsIcESaIcEEERNS_19basic_ostringstreamIcS2_S3_EERPSt15basic_streambufIcS2_ESC_
FNDA:1,_ZL30____C_A_T_C_H____T_E_S_T____48v
FNDA:2,_ZL30____C_A_T_C_H____T_E_S_T____55v
FNDA:3,_ZL30____C_A_T_C_H____T_E_S_T____50v
FNF:24
FNH:24
DA:6,3
DA:7,3
DA:8,3
DA:9,2
DA:11,3
DA:14,7
DA:15,7
DA:16,7
DA:17,7
DA:18,4
DA:20,14
DA:23,3
DA:24,3
DA:25,3
DA:26,3
DA:28,3
DA:29,3
DA:30,3
DA:31,3
DA:32,3
DA:33,21
DA:34,18
DA:36,3
DA:38,3
DA:39,6
DA:40,6
DA:41,3
DA:42,4
DA:43,1
DA:45,4
DA:46,1
DA:47,1
DA:48,1
DA:50,1
DA:51,1
DA:52,1
DA:54,4
DA:56,1
DA:57,1
DA:58,1
DA:60,1
DA:61,1
DA:62,1
DA:66,0
DA:69,3
DA:70,2
DA:71,4
DA:72,2
DA:73,2
DA:74,2
DA:75,4
DA:76,2
DA:77,3
DA:78,1
DA:79,4
DA:80,3
DA:83,3
DA:84,1
DA:85,1
DA:87,2
DA:88,1
DA:89,2
DA:90,1
DA:91,1
DA:93,3
DA:95,4
DA:97,2
DA:98,1
DA:99,1
DA:100,2
DA:102,1
DA:103,1
DA:104,1
DA:107,4
DA:108,2
DA:109,1
DA:110,1
DA:111,2
DA:112,1
DA:113,1
DA:114,1
DA:116,4
DA:117,2
DA:118,1
DA:119,1
DA:120,1
DA:121,2
DA:122,1
DA:123,1
DA:124,1
DA:126,3
DA:127,2
DA:128,4
DA:129,2
DA:130,2
DA:131,2
DA:132,3
DA:133,2
DA:134,1
DA:135,1
DA:136,1
DA:137,1
DA:139,3
DA:140,2
DA:141,1
DA:142,1
DA:143,1
DA:145,2
DA:146,1
DA:147,2
DA:148,2
DA:149,2
DA:150,1
DA:151,2
DA:152,1
DA:154,1
DA:155,1
DA:156,2
DA:157,1
DA:158,1
DA:159,1
DA:161,2
DA:162,1
DA:164,1
DA:166,1
DA:167,1
DA:168,1
DA:169,1
DA:170,2
DA:171,1
DA:172,1
DA:173,2
DA:175,2
DA:176,1
DA:178,1
DA:180,1
DA:183,2
DA:184,1
DA:185,1
DA:187,1
DA:189,2
DA:190,2
DA:191,2
DA:192,1
DA:194,1
DA:195,4
DA:197,8
DA:198,4
DA:199,4
DA:200,4
DA:202,8
DA:203,4
DA:204,4
DA:205,4
DA:207,5
DA:208,1
DA:209,1
DA:211,5
DA:212,1
DA:213,1
DA:214,1
DA:216,5
DA:217,1
DA:218,1
DA:220,1
DA:222,5
DA:223,1
DA:224,1
DA:225,1
DA:227,4
DA:228,1
DA:229,2
DA:230,2
DA:232,3
DA:233,2
DA:238,1
DA:240,1
DA:242,1
DA:244,2
DA:252,9
DA:254,1
DA:256,1
DA:257,1
DA:258,1
DA:259,1
DA:261,1
DA:262,2
DA:263,2
DA:265,2
DA:266,2
DA:268,3
DA:269,2
DA:274,1
DA:276,1
DA:278,1
DA:280,2
DA:290,11
DA:292,1
DA:294,1
DA:295,1
DA:296,1
DA:297,1
DA:299,2
DA:300,4
DA:301,4
DA:303,3
DA:304,1
DA:305,3
DA:306,2
DA:311,1
DA:313,1
DA:315,1
DA:317,2
DA:326,10
DA:328,1
DA:330,1
DA:331,1
DA:332,1
DA:335,3
DA:336,1
DA:337,1
DA:338,1
DA:340,2
DA:341,2
DA:342,4
DA:343,2
DA:344,2
DA:345,2
DA:346,4
DA:348,4
DA:349,2
DA:350,2
DA:351,2
DA:353,3
DA:354,2
DA:355,1
DA:357,3
DA:358,1
DA:359,2
DA:360,1
DA:362,2
DA:363,1
DA:364,2
DA:365,1
DA:366,1
DA:367,1
DA:368,3
DA:369,6
DA:370,3
DA:371,4
DA:372,2
DA:373,1
DA:374,1
DA:376,3
DA:377,3
DA:378,3
DA:379,4
DA:381,2
DA:382,1
DA:383,1
DA:384,1
DA:386,4
DA:387,1
DA:388,2
DA:389,1
DA:390,1
DA:391,1
DA:393,3
DA:395,2
DA:396,4
DA:397,3
DA:398,2
DA:399,1
DA:400,1
DA:402,3
DA:403,1
DA:404,1
DA:405,1
DA:406,2
DA:407,1
DA:408,1
DA:409,1
DA:411,2
DA:413,1
DA:414,2
DA:415,1
DA:416,1
DA:417,1
DA:418,2
DA:419,2
DA:420,2
DA:421,1
DA:422,1
DA:423,1
DA:424,1
DA:426,2
DA:427,4
DA:428,2
DA:429,2
DA:430,2
DA:431,4
DA:433,4
DA:435,3
DA:436,1
DA:437,1
DA:438,2
DA:439,1
DA:442,3
DA:443,1
DA:444,1
DA:445,1
DA:446,2
DA:447,1
DA:449,2
LF:314
LH:313
end_of_record
